target datalayout = "e-m:e-p270:32:32-p271:32:32-p272:64:64-i64:64-i128:128-f80:128-n8:16:32:64-S128"
target triple = "x86_64-pc-linux-gnu"

%struct.tok_state = type { ptr, ptr, ptr, i32, ptr, ptr, ptr, ptr, i32, ptr, i32, i32, [100 x i32], i32, i32, ptr, ptr, i32, i32, i32, i32, i32, [200 x i8], [200 x i32], [200 x i32], ptr, [100 x i32], i32, i32, ptr, i32, ptr, ptr, ptr, ptr, ptr, ptr, ptr, ptr, i32, i32, ptr, i32, [150 x %struct._tokenizer_mode], i32, i32, i32, i32 }
%struct._tokenizer_mode = type { i32, i32, i32, i8, i32, i32, ptr, ptr, i32, i64, i64, i64, i64, ptr, i32, i32 }

; Function Attrs: nounwind uwtable
define hidden ptr @_PyTokenizer_translate_newlines(ptr noundef %0, i32 noundef %1, i32 noundef %2, ptr noundef %3) #0 {
  %5 = alloca ptr, align 8
  %6 = alloca ptr, align 8
  %7 = alloca i32, align 4
  %8 = alloca i32, align 4
  %9 = alloca ptr, align 8
  %10 = alloca i32, align 4
  %11 = alloca i64, align 8
  %12 = alloca i64, align 8
  %13 = alloca ptr, align 8
  %14 = alloca ptr, align 8
  %15 = alloca i8, align 1
  %16 = alloca i32, align 4
  %17 = alloca ptr, align 8
  store ptr %0, ptr %6, align 8, !tbaa !9
  store i32 %1, ptr %7, align 4, !tbaa !11
  store i32 %2, ptr %8, align 4, !tbaa !11
  store ptr %3, ptr %9, align 8, !tbaa !4
  call void @llvm.lifetime.start.p0(i64 4, ptr %10) #8
  store i32 0, ptr %10, align 4, !tbaa !11
  call void @llvm.lifetime.start.p0(i64 8, ptr %11) #8
  %18 = load ptr, ptr %6, align 8, !tbaa !9
  %19 = call i64 @strlen(ptr noundef %18) #9
  %20 = add i64 %19, 2
  store i64 %20, ptr %11, align 8, !tbaa !22
  call void @llvm.lifetime.start.p0(i64 8, ptr %12) #8
  call void @llvm.lifetime.start.p0(i64 8, ptr %13) #8
  call void @llvm.lifetime.start.p0(i64 8, ptr %14) #8
  call void @llvm.lifetime.start.p0(i64 1, ptr %15) #8
  store i8 0, ptr %15, align 1, !tbaa !34
  %21 = load i64, ptr %11, align 8, !tbaa !22
  %22 = call ptr @PyMem_Malloc(i64 noundef %21)
  store ptr %22, ptr %13, align 8, !tbaa !9
  %23 = load ptr, ptr %13, align 8, !tbaa !9
  %24 = icmp eq ptr %23, null
  br i1 %24, label %25, label %28

25:                                               ; preds = %4
  %26 = load ptr, ptr %9, align 8, !tbaa !4
  %27 = getelementptr inbounds nuw %struct.tok_state, ptr %26, i32 0, i32 8
  store i32 15, ptr %27, align 8, !tbaa !15
  store ptr null, ptr %5, align 8
  store i32 1, ptr %16, align 4
  br label %109

28:                                               ; preds = %4
  %29 = load ptr, ptr %13, align 8, !tbaa !9
  store ptr %29, ptr %14, align 8, !tbaa !9
  br label %30

30:                                               ; preds = %63, %28
  %31 = load ptr, ptr %6, align 8, !tbaa !9
  %32 = load i8, ptr %31, align 1, !tbaa !34
  %33 = icmp ne i8 %32, 0
  br i1 %33, label %34, label %68

34:                                               ; preds = %30
  %35 = load ptr, ptr %6, align 8, !tbaa !9
  %36 = load i8, ptr %35, align 1, !tbaa !34
  store i8 %36, ptr %15, align 1, !tbaa !34
  %37 = load i32, ptr %10, align 4, !tbaa !11
  %38 = icmp ne i32 %37, 0
  br i1 %38, label %39, label %52

39:                                               ; preds = %34
  store i32 0, ptr %10, align 4, !tbaa !11
  %40 = load i8, ptr %15, align 1, !tbaa !34
  %41 = sext i8 %40 to i32
  %42 = icmp eq i32 %41, 10
  br i1 %42, label %43, label %51

43:                                               ; preds = %39
  %44 = load ptr, ptr %6, align 8, !tbaa !9
  %45 = getelementptr i8, ptr %44, i32 1
  store ptr %45, ptr %6, align 8, !tbaa !9
  %46 = load i8, ptr %45, align 1, !tbaa !34
  store i8 %46, ptr %15, align 1, !tbaa !34
  %47 = load i8, ptr %15, align 1, !tbaa !34
  %48 = icmp ne i8 %47, 0
  br i1 %48, label %50, label %49

49:                                               ; preds = %43
  br label %68

50:                                               ; preds = %43
  br label %51

51:                                               ; preds = %50, %39
  br label %52

52:                                               ; preds = %51, %34
  %53 = load i32, ptr %8, align 4, !tbaa !11
  %54 = icmp ne i32 %53, 0
  br i1 %54, label %60, label %55

55:                                               ; preds = %52
  %56 = load i8, ptr %15, align 1, !tbaa !34
  %57 = sext i8 %56 to i32
  %58 = icmp eq i32 %57, 13
  br i1 %58, label %59, label %60

59:                                               ; preds = %55
  store i32 1, ptr %10, align 4, !tbaa !11
  store i8 10, ptr %15, align 1, !tbaa !34
  br label %60

60:                                               ; preds = %59, %55, %52
  %61 = load i8, ptr %15, align 1, !tbaa !34
  %62 = load ptr, ptr %14, align 8, !tbaa !9
  store i8 %61, ptr %62, align 1, !tbaa !34
  br label %63

63:                                               ; preds = %60
  %64 = load ptr, ptr %6, align 8, !tbaa !9
  %65 = getelementptr i8, ptr %64, i32 1
  store ptr %65, ptr %6, align 8, !tbaa !9
  %66 = load ptr, ptr %14, align 8, !tbaa !9
  %67 = getelementptr i8, ptr %66, i32 1
  store ptr %67, ptr %14, align 8, !tbaa !9
  br label %30, !llvm.loop !35

68:                                               ; preds = %49, %30
  %69 = load i32, ptr %7, align 4, !tbaa !11
  %70 = icmp ne i32 %69, 0
  br i1 %70, label %71, label %83

71:                                               ; preds = %68
  %72 = load i8, ptr %15, align 1, !tbaa !34
  %73 = sext i8 %72 to i32
  %74 = icmp ne i32 %73, 10
  br i1 %74, label %75, label %83

75:                                               ; preds = %71
  %76 = load i8, ptr %15, align 1, !tbaa !34
  %77 = sext i8 %76 to i32
  %78 = icmp ne i32 %77, 0
  br i1 %78, label %79, label %83

79:                                               ; preds = %75
  %80 = load ptr, ptr %14, align 8, !tbaa !9
  store i8 10, ptr %80, align 1, !tbaa !34
  %81 = load ptr, ptr %14, align 8, !tbaa !9
  %82 = getelementptr i8, ptr %81, i32 1
  store ptr %82, ptr %14, align 8, !tbaa !9
  br label %83

83:                                               ; preds = %79, %75, %71, %68
  %84 = load ptr, ptr %14, align 8, !tbaa !9
  store i8 0, ptr %84, align 1, !tbaa !34
  %85 = load ptr, ptr %14, align 8, !tbaa !9
  %86 = load ptr, ptr %13, align 8, !tbaa !9
  %87 = ptrtoint ptr %85 to i64
  %88 = ptrtoint ptr %86 to i64
  %89 = sub i64 %87, %88
  %90 = add i64 %89, 1
  store i64 %90, ptr %12, align 8, !tbaa !22
  %91 = load i64, ptr %12, align 8, !tbaa !22
  %92 = load i64, ptr %11, align 8, !tbaa !22
  %93 = icmp ult i64 %91, %92
  br i1 %93, label %94, label %107

94:                                               ; preds = %83
  %95 = load i64, ptr %12, align 8, !tbaa !22
  %96 = icmp ne i64 %95, 0
  br i1 %96, label %97, label %107

97:                                               ; preds = %94
  call void @llvm.lifetime.start.p0(i64 8, ptr %17) #8
  %98 = load ptr, ptr %13, align 8, !tbaa !9
  %99 = load i64, ptr %12, align 8, !tbaa !22
  %100 = call ptr @PyMem_Realloc(ptr noundef %98, i64 noundef %99)
  store ptr %100, ptr %17, align 8, !tbaa !9
  %101 = load ptr, ptr %17, align 8, !tbaa !9
  %102 = icmp eq ptr %101, null
  br i1 %102, label %103, label %105

103:                                              ; preds = %97
  %104 = load ptr, ptr %13, align 8, !tbaa !9
  call void @PyMem_Free(ptr noundef %104)
  br label %105

105:                                              ; preds = %103, %97
  %106 = load ptr, ptr %17, align 8, !tbaa !9
  store ptr %106, ptr %13, align 8, !tbaa !9
  call void @llvm.lifetime.end.p0(i64 8, ptr %17) #8
  br label %107

107:                                              ; preds = %105, %94, %83
  %108 = load ptr, ptr %13, align 8, !tbaa !9
  store ptr %108, ptr %5, align 8
  store i32 1, ptr %16, align 4
  br label %109

109:                                              ; preds = %107, %25
  call void @llvm.lifetime.end.p0(i64 1, ptr %15) #8
  call void @llvm.lifetime.end.p0(i64 8, ptr %14) #8
  call void @llvm.lifetime.end.p0(i64 8, ptr %13) #8
  call void @llvm.lifetime.end.p0(i64 8, ptr %12) #8
  call void @llvm.lifetime.end.p0(i64 8, ptr %11) #8
  call void @llvm.lifetime.end.p0(i64 4, ptr %10) #8
  %110 = load ptr, ptr %5, align 8
  ret ptr %110
}