; Function Attrs: nounwind uwtable
define hidden ptr @_PyTokenizer_translate_newlines(ptr noundef readonly captures(none) %0, i32 noundef %1, i32 noundef %2, ptr noundef writeonly captures(none) %3) local_unnamed_addr #0 {
  %5 = tail call i64 @strlen(ptr noundef nonnull dereferenceable(1) %0) #10
  %6 = add i64 %5, 2
  %7 = tail call ptr @PyMem_Malloc(i64 noundef %6) #9
  %8 = icmp eq ptr %7, null
  br i1 %8, label %15, label %.preheader

.preheader:                                       ; preds = %4
  %9 = load i8, ptr %0, align 1, !tbaa !22
  %.not67 = icmp eq i8 %9, 0
  br i1 %.not67, label %._crit_edge, label %.lr.ph

.lr.ph:                                           ; preds = %.preheader
  %10 = icmp eq i32 %2, 0
  br i1 %10, label %.lr.ph.split, label %.lr.ph.split.us.split

.lr.ph.split.us.split:                            ; preds = %.lr.ph, %.lr.ph.split.us.split
  %11 = phi i8 [ %14, %.lr.ph.split.us.split ], [ %9, %.lr.ph ]
  %.04570.us = phi ptr [ %13, %.lr.ph.split.us.split ], [ %7, %.lr.ph ]
  %.04869.us = phi ptr [ %12, %.lr.ph.split.us.split ], [ %0, %.lr.ph ]
  store i8 %11, ptr %.04570.us, align 1, !tbaa !22
  %12 = getelementptr i8, ptr %.04869.us, i64 1
  %13 = getelementptr i8, ptr %.04570.us, i64 1
  %14 = load i8, ptr %12, align 1, !tbaa !22
  %.not.us = icmp eq i8 %14, 0
  br i1 %.not.us, label %._crit_edge, label %.lr.ph.split.us.split, !llvm.loop !32

15:                                               ; preds = %4
  %16 = getelementptr inbounds nuw i8, ptr %3, i64 64
  store i32 15, ptr %16, align 8, !tbaa !4
  br label %39

.lr.ph.split:                                     ; preds = %.lr.ph, %22
  %17 = phi i8 [ %26, %22 ], [ %9, %.lr.ph ]
  %.04570 = phi ptr [ %25, %22 ], [ %7, %.lr.ph ]
  %.04869 = phi ptr [ %24, %22 ], [ %0, %.lr.ph ]
  %.05068 = phi i1 [ %23, %22 ], [ false, %.lr.ph ]
  %18 = icmp eq i8 %17, 10
  %or.cond60 = and i1 %.05068, %18
  br i1 %or.cond60, label %19, label %22

19:                                               ; preds = %.lr.ph.split
  %20 = getelementptr i8, ptr %.04869, i64 1
  %21 = load i8, ptr %20, align 1, !tbaa !22
  %.not59 = icmp eq i8 %21, 0
  br i1 %.not59, label %.thread, label %22

22:                                               ; preds = %19, %.lr.ph.split
  %.149 = phi ptr [ %20, %19 ], [ %.04869, %.lr.ph.split ]
  %.2 = phi i8 [ %21, %19 ], [ %17, %.lr.ph.split ]
  %23 = icmp eq i8 %.2, 13
  %spec.select = select i1 %23, i8 10, i8 %.2
  store i8 %spec.select, ptr %.04570, align 1, !tbaa !22
  %24 = getelementptr i8, ptr %.149, i64 1
  %25 = getelementptr i8, ptr %.04570, i64 1
  %26 = load i8, ptr %24, align 1, !tbaa !22
  %.not = icmp eq i8 %26, 0
  br i1 %.not, label %._crit_edge, label %.lr.ph.split, !llvm.loop !32

._crit_edge:                                      ; preds = %.lr.ph.split.us.split, %22, %.preheader
  %.045.lcssa = phi ptr [ %7, %.preheader ], [ %25, %22 ], [ %13, %.lr.ph.split.us.split ]
  %.044.lcssa = phi i8 [ 0, %.preheader ], [ %spec.select, %22 ], [ %11, %.lr.ph.split.us.split ]
  %.not74 = icmp eq i32 %1, 0
  br i1 %.not74, label %.thread, label %switch.early.test

switch.early.test:                                ; preds = %._crit_edge
  switch i8 %.044.lcssa, label %27 [
    i8 10, label %.thread
    i8 0, label %.thread
  ]

27:                                               ; preds = %switch.early.test
  store i8 10, ptr %.045.lcssa, align 1, !tbaa !22
  %28 = getelementptr i8, ptr %.045.lcssa, i64 1
  br label %.thread

.thread:                                          ; preds = %19, %switch.early.test, %switch.early.test, %._crit_edge, %27
  %.146 = phi ptr [ %28, %27 ], [ %.045.lcssa, %switch.early.test ], [ %.045.lcssa, %._crit_edge ], [ %.045.lcssa, %switch.early.test ], [ %.04570, %19 ]
  store i8 0, ptr %.146, align 1, !tbaa !22
  %29 = ptrtoint ptr %.146 to i64
  %30 = ptrtoint ptr %7 to i64
  %31 = sub i64 %29, %30
  %32 = add i64 %31, 1
  %33 = icmp ult i64 %32, %6
  %34 = icmp ne i64 %32, 0
  %or.cond10 = and i1 %33, %34
  br i1 %or.cond10, label %35, label %39

35:                                               ; preds = %.thread
  %36 = tail call ptr @PyMem_Realloc(ptr noundef nonnull %7, i64 noundef %32) #9
  %37 = icmp eq ptr %36, null
  br i1 %37, label %38, label %39

38:                                               ; preds = %35
  tail call void @PyMem_Free(ptr noundef nonnull %7) #9
  br label %39

39:                                               ; preds = %.thread, %38, %35, %15
  %.0 = phi ptr [ null, %15 ], [ %7, %.thread ], [ null, %38 ], [ %36, %35 ]
  ret ptr %.0
}